; Function Attrs: nounwind uwtable
define internal void @format_unraisable(ptr noundef %0, ptr readnone captures(none) %1, ...) unnamed_addr #0 {
  %3 = alloca [1 x %struct.__va_list_tag], align 16
  call void @llvm.lifetime.start.p0(i64 24, ptr nonnull %3) #17
  call void @llvm.va_start.p0(ptr nonnull %3)
  call fastcc void @format_unraisable_v(ptr noundef null, ptr noundef %3, ptr noundef %0)
  call void @llvm.va_end.p0(ptr nonnull %3)
  call void @llvm.lifetime.end.p0(i64 24, ptr nonnull %3) #17
  ret void
}